; Function Attrs: mustprogress uwtable
define void @_ZN6google8protobuf8internal14WireFormatLite22WriteGroupMaybeToArrayEiRKNS0_11MessageLiteEPNS0_2io17CodedOutputStreamE(i32 noundef %0, ptr noundef nonnull align 8 dereferenceable(16) %1, ptr noundef %2) local_unnamed_addr #3 align 2 {
  %4 = shl i32 %0, 3
  %5 = or disjoint i32 %4, 3
  %6 = getelementptr inbounds i8, ptr %2, i64 64
  %7 = load ptr, ptr %6, align 8
  %8 = load ptr, ptr %2, align 8
  %.not.i.i.i = icmp ugt ptr %8, %7
  br i1 %.not.i.i.i, label %_ZN6google8protobuf2io19EpsCopyOutputStream11EnsureSpaceEPh.exit.i.i, label %9

9:                                                ; preds = %3
  %10 = tail call noundef ptr @_ZN6google8protobuf2io19EpsCopyOutputStream19EnsureSpaceFallbackEPh(ptr noundef nonnull align 8 dereferenceable(59) %2, ptr noundef %7)
  br label %_ZN6google8protobuf2io19EpsCopyOutputStream11EnsureSpaceEPh.exit.i.i

_ZN6google8protobuf2io19EpsCopyOutputStream11EnsureSpaceEPh.exit.i.i: ; preds = %9, %3
  %.0.i.i.i = phi ptr [ %10, %9 ], [ %7, %3 ]
  %11 = icmp ult i32 %5, 128
  %12 = trunc i32 %5 to i8
  br i1 %11, label %13, label %15

13:                                               ; preds = %_ZN6google8protobuf2io19EpsCopyOutputStream11EnsureSpaceEPh.exit.i.i
  store i8 %12, ptr %.0.i.i.i, align 1
  %14 = getelementptr inbounds i8, ptr %.0.i.i.i, i64 1
  br label %_ZN6google8protobuf2io17CodedOutputStream8WriteTagEj.exit

15:                                               ; preds = %_ZN6google8protobuf2io19EpsCopyOutputStream11EnsureSpaceEPh.exit.i.i
  %16 = or i8 %12, -128
  store i8 %16, ptr %.0.i.i.i, align 1
  %17 = lshr i32 %4, 7
  %18 = icmp ult i32 %5, 16384
  br i1 %18, label %19, label %23

19:                                               ; preds = %15
  %20 = trunc nuw nsw i32 %17 to i8
  %21 = getelementptr inbounds i8, ptr %.0.i.i.i, i64 1
  store i8 %20, ptr %21, align 1
  %22 = getelementptr inbounds i8, ptr %.0.i.i.i, i64 2
  br label %_ZN6google8protobuf2io17CodedOutputStream8WriteTagEj.exit

23:                                               ; preds = %15
  %24 = getelementptr inbounds i8, ptr %.0.i.i.i, i64 1
  br label %25

25:                                               ; preds = %25, %23
  %.023.i.i.i = phi ptr [ %24, %23 ], [ %29, %25 ]
  %.022.i.i.i = phi i32 [ %17, %23 ], [ %28, %25 ]
  %26 = trunc i32 %.022.i.i.i to i8
  %27 = or i8 %26, -128
  store i8 %27, ptr %.023.i.i.i, align 1
  %28 = lshr i32 %.022.i.i.i, 7
  %29 = getelementptr inbounds i8, ptr %.023.i.i.i, i64 1
  %30 = icmp ugt i32 %.022.i.i.i, 16383
  br i1 %30, label %25, label %31, !llvm.loop !6

31:                                               ; preds = %25
  %32 = trunc nuw nsw i32 %28 to i8
  %33 = getelementptr inbounds i8, ptr %.023.i.i.i, i64 2
  store i8 %32, ptr %29, align 1
  br label %_ZN6google8protobuf2io17CodedOutputStream8WriteTagEj.exit

_ZN6google8protobuf2io17CodedOutputStream8WriteTagEj.exit: ; preds = %13, %19, %31
  %.0.i1.i.i = phi ptr [ %14, %13 ], [ %22, %19 ], [ %33, %31 ]
  store ptr %.0.i1.i.i, ptr %6, align 8
  %34 = load ptr, ptr %1, align 8
  %35 = getelementptr inbounds i8, ptr %34, i64 80
  %36 = load ptr, ptr %35, align 8
  %37 = tail call noundef i32 %36(ptr noundef nonnull align 8 dereferenceable(16) %1)
  %38 = load ptr, ptr %6, align 8
  %39 = load ptr, ptr %1, align 8
  %40 = getelementptr inbounds i8, ptr %39, i64 96
  %41 = load ptr, ptr %40, align 8
  %42 = tail call noundef ptr %41(ptr noundef nonnull align 8 dereferenceable(16) %1, ptr noundef %38, ptr noundef nonnull %2)
  store ptr %42, ptr %6, align 8
  %43 = or disjoint i32 %4, 4
  %44 = load ptr, ptr %2, align 8
  %.not.i.i.i13 = icmp ugt ptr %44, %42
  br i1 %.not.i.i.i13, label %_ZN6google8protobuf2io19EpsCopyOutputStream11EnsureSpaceEPh.exit.i.i14, label %45

45:                                               ; preds = %_ZN6google8protobuf2io17CodedOutputStream8WriteTagEj.exit
  %46 = tail call noundef ptr @_ZN6google8protobuf2io19EpsCopyOutputStream19EnsureSpaceFallbackEPh(ptr noundef nonnull align 8 dereferenceable(59) %2, ptr noundef %42)
  br label %_ZN6google8protobuf2io19EpsCopyOutputStream11EnsureSpaceEPh.exit.i.i14

_ZN6google8protobuf2io19EpsCopyOutputStream11EnsureSpaceEPh.exit.i.i14: ; preds = %45, %_ZN6google8protobuf2io17CodedOutputStream8WriteTagEj.exit
  %.0.i.i.i15 = phi ptr [ %46, %45 ], [ %42, %_ZN6google8protobuf2io17CodedOutputStream8WriteTagEj.exit ]
  %47 = icmp ult i32 %43, 128
  %48 = trunc i32 %43 to i8
  br i1 %47, label %49, label %51

49:                                               ; preds = %_ZN6google8protobuf2io19EpsCopyOutputStream11EnsureSpaceEPh.exit.i.i14
  store i8 %48, ptr %.0.i.i.i15, align 1
  %50 = getelementptr inbounds i8, ptr %.0.i.i.i15, i64 1
  br label %_ZN6google8protobuf2io17CodedOutputStream8WriteTagEj.exit19

51:                                               ; preds = %_ZN6google8protobuf2io19EpsCopyOutputStream11EnsureSpaceEPh.exit.i.i14
  %52 = or i8 %48, -128
  store i8 %52, ptr %.0.i.i.i15, align 1
  %53 = lshr i32 %4, 7
  %54 = icmp ult i32 %43, 16384
  br i1 %54, label %55, label %59

55:                                               ; preds = %51
  %56 = trunc nuw nsw i32 %53 to i8
  %57 = getelementptr inbounds i8, ptr %.0.i.i.i15, i64 1
  store i8 %56, ptr %57, align 1
  %58 = getelementptr inbounds i8, ptr %.0.i.i.i15, i64 2
  br label %_ZN6google8protobuf2io17CodedOutputStream8WriteTagEj.exit19

59:                                               ; preds = %51
  %60 = getelementptr inbounds i8, ptr %.0.i.i.i15, i64 1
  br label %61

61:                                               ; preds = %61, %59
  %.023.i.i.i16 = phi ptr [ %60, %59 ], [ %65, %61 ]
  %.022.i.i.i17 = phi i32 [ %53, %59 ], [ %64, %61 ]
  %62 = trunc i32 %.022.i.i.i17 to i8
  %63 = or i8 %62, -128
  store i8 %63, ptr %.023.i.i.i16, align 1
  %64 = lshr i32 %.022.i.i.i17, 7
  %65 = getelementptr inbounds i8, ptr %.023.i.i.i16, i64 1
  %66 = icmp ugt i32 %.022.i.i.i17, 16383
  br i1 %66, label %61, label %67, !llvm.loop !6

67:                                               ; preds = %61
  %68 = trunc nuw nsw i32 %64 to i8
  %69 = getelementptr inbounds i8, ptr %.023.i.i.i16, i64 2
  store i8 %68, ptr %65, align 1
  br label %_ZN6google8protobuf2io17CodedOutputStream8WriteTagEj.exit19

_ZN6google8protobuf2io17CodedOutputStream8WriteTagEj.exit19: ; preds = %49, %55, %67
  %.0.i1.i.i18 = phi ptr [ %50, %49 ], [ %58, %55 ], [ %69, %67 ]
  store ptr %.0.i1.i.i18, ptr %6, align 8
  ret void
}